; Function Attrs: inlinehint mustprogress nounwind uwtable
define internal void @_ZN5boost9unit_test12_GLOBAL__N_118unit_test_log_implD2Ev(ptr noundef nonnull readonly align 8 dereferenceable(152) %0) unnamed_addr #12 align 2 personality ptr @__gxx_personality_v0 {
  %2 = getelementptr inbounds nuw i8, ptr %0, i64 120
  %3 = load ptr, ptr %2, align 8, !tbaa !54
  %4 = getelementptr inbounds nuw i8, ptr %0, i64 136
  %5 = icmp eq ptr %3, %4
  br i1 %5, label %_ZNKSt7__cxx1112basic_stringIcSt11char_traitsIcESaIcEE11_M_is_localEv.exit.thread.i.i.i, label %_ZNKSt7__cxx1112basic_stringIcSt11char_traitsIcESaIcEE11_M_is_localEv.exit.i.i.i

_ZNKSt7__cxx1112basic_stringIcSt11char_traitsIcESaIcEE11_M_is_localEv.exit.thread.i.i.i: ; preds = %1
  %6 = getelementptr inbounds nuw i8, ptr %0, i64 128
  %7 = load i64, ptr %6, align 8, !tbaa !55
  %8 = icmp ult i64 %7, 16
  tail call void @llvm.assume(i1 %8)
  br label %_ZN5boost9unit_test19log_checkpoint_dataD2Ev.exit

_ZNKSt7__cxx1112basic_stringIcSt11char_traitsIcESaIcEE11_M_is_localEv.exit.i.i.i: ; preds = %1
  %9 = load i64, ptr %4, align 8, !tbaa !64
  %10 = add i64 %9, 1
  tail call void @_ZdlPvm(ptr noundef %3, i64 noundef %10) #31
  br label %_ZN5boost9unit_test19log_checkpoint_dataD2Ev.exit

_ZN5boost9unit_test19log_checkpoint_dataD2Ev.exit: ; preds = %_ZNKSt7__cxx1112basic_stringIcSt11char_traitsIcESaIcEE11_M_is_localEv.exit.thread.i.i.i, %_ZNKSt7__cxx1112basic_stringIcSt11char_traitsIcESaIcEE11_M_is_localEv.exit.i.i.i
  %11 = getelementptr inbounds nuw i8, ptr %0, i64 48
  %12 = load ptr, ptr %11, align 8, !tbaa !54
  %13 = getelementptr inbounds nuw i8, ptr %0, i64 64
  %14 = icmp eq ptr %12, %13
  br i1 %14, label %_ZNKSt7__cxx1112basic_stringIcSt11char_traitsIcESaIcEE11_M_is_localEv.exit.thread.i.i.i3, label %_ZNKSt7__cxx1112basic_stringIcSt11char_traitsIcESaIcEE11_M_is_localEv.exit.i.i.i2

_ZNKSt7__cxx1112basic_stringIcSt11char_traitsIcESaIcEE11_M_is_localEv.exit.thread.i.i.i3: ; preds = %_ZN5boost9unit_test19log_checkpoint_dataD2Ev.exit
  %15 = getelementptr inbounds nuw i8, ptr %0, i64 56
  %16 = load i64, ptr %15, align 8, !tbaa !55
  %17 = icmp ult i64 %16, 16
  tail call void @llvm.assume(i1 %17)
  br label %_ZN5boost9unit_test14log_entry_dataD2Ev.exit

_ZNKSt7__cxx1112basic_stringIcSt11char_traitsIcESaIcEE11_M_is_localEv.exit.i.i.i2: ; preds = %_ZN5boost9unit_test19log_checkpoint_dataD2Ev.exit
  %18 = load i64, ptr %13, align 8, !tbaa !64
  %19 = add i64 %18, 1
  tail call void @_ZdlPvm(ptr noundef %12, i64 noundef %19) #31
  br label %_ZN5boost9unit_test14log_entry_dataD2Ev.exit

_ZN5boost9unit_test14log_entry_dataD2Ev.exit:     ; preds = %_ZNKSt7__cxx1112basic_stringIcSt11char_traitsIcESaIcEE11_M_is_localEv.exit.thread.i.i.i3, %_ZNKSt7__cxx1112basic_stringIcSt11char_traitsIcESaIcEE11_M_is_localEv.exit.i.i.i2
  %20 = getelementptr inbounds nuw i8, ptr %0, i64 24
  %.val = load ptr, ptr %20, align 8
  %.not.i.i.i = icmp eq ptr %.val, null
  br i1 %.not.i.i.i, label %_ZNSt6vectorIPN5boost9unit_test12_GLOBAL__N_130unit_test_log_data_helper_implESaIS4_EED2Ev.exit, label %21

21:                                               ; preds = %_ZN5boost9unit_test14log_entry_dataD2Ev.exit
  %22 = getelementptr inbounds i8, ptr %0, i64 40
  %.val1 = load ptr, ptr %22, align 8
  %23 = ptrtoint ptr %.val1 to i64
  %24 = ptrtoint ptr %.val to i64
  %25 = sub i64 %23, %24
  tail call void @_ZdlPvm(ptr noundef nonnull %.val, i64 noundef %25) #31
  br label %_ZNSt6vectorIPN5boost9unit_test12_GLOBAL__N_130unit_test_log_data_helper_implESaIS4_EED2Ev.exit

_ZNSt6vectorIPN5boost9unit_test12_GLOBAL__N_130unit_test_log_data_helper_implESaIS4_EED2Ev.exit: ; preds = %_ZN5boost9unit_test14log_entry_dataD2Ev.exit, %21
  tail call fastcc void @_ZNSt6vectorIN5boost9unit_test12_GLOBAL__N_130unit_test_log_data_helper_implESaIS3_EED2Ev(ptr noundef nonnull align 8 dereferenceable(24) %0) #27
  ret void
}